target datalayout = "e-m:e-p270:32:32-p271:32:32-p272:64:64-i64:64-i128:128-f80:128-n8:16:32:64-S128"
target triple = "x86_64-pc-linux-gnu"

%struct.AVCodecContext = type { ptr, i32, i32, ptr, i32, i32, ptr, ptr, ptr, i64, i32, i32, ptr, i32, %struct.AVRational, %struct.AVRational, %struct.AVRational, i32, i32, i32, i32, i32, %struct.AVRational, i32, i32, i32, i32, i32, i32, i32, i32, i32, i32, i32, ptr, ptr, i32, float, float, float, float, float, float, float, float, float, i32, i32, i32, i32, i32, i32, i32, i32, i32, i32, i32, i32, ptr, ptr, ptr, i32, i32, i32, i32, i32, i32, i32, i32, i32, i32, %struct.AVChannelLayout, i32, i32, i32, i32, i32, i32, i32, i32, ptr, i32, i32, i32, float, float, i32, i32, i32, i32, i32, ptr, i64, i64, float, float, i32, i32, ptr, ptr, i32, i32, i32, i32, i32, ptr, ptr, ptr, ptr, i32, i32, [8 x i64], i32, i32, i32, i32, i32, i32, i32, ptr, ptr, i32, i32, i32, i32, i32, i32, i32, i32, i32, i32, ptr, ptr, i32, i32, ptr, ptr, ptr, ptr, i32, i32, i64, i32, i32, i64, ptr, i64, ptr, i32, ptr, i32 }
%struct.AVRational = type { i32, i32 }
%struct.AVChannelLayout = type { i32, i32, %union.anon.0, ptr }
%union.anon.0 = type { i64 }
%struct.FlicDecodeContext = type { ptr, ptr, [256 x i32], i32, i32 }

@.str.2 = private unnamed_addr constant [30 x i8] c"Unexpected extradata size %d\0A\00", align 1
@.str.3 = private unnamed_addr constant [49 x i8] c"Unknown FLC/FLX depth of %d Bpp is unsupported.\0A\00", align 1

; Function Attrs: cold nounwind optsize uwtable
define internal i32 @flic_decode_init(ptr noundef %0) #0 {
  %2 = alloca i32, align 4
  %3 = alloca ptr, align 8
  %4 = alloca ptr, align 8
  %5 = alloca ptr, align 8
  %6 = alloca i32, align 4
  %7 = alloca i32, align 4
  %8 = alloca ptr, align 8
  %9 = alloca i32, align 4
  store ptr %0, ptr %3, align 8, !tbaa !4
  call void @llvm.lifetime.start.p0(i64 8, ptr %4) #10
  %10 = load ptr, ptr %3, align 8, !tbaa !4
  %11 = getelementptr inbounds nuw %struct.AVCodecContext, ptr %10, i32 0, i32 6
  %12 = load ptr, ptr %11, align 8, !tbaa !9
  store ptr %12, ptr %4, align 8, !tbaa !29
  call void @llvm.lifetime.start.p0(i64 8, ptr %5) #10
  %13 = load ptr, ptr %3, align 8, !tbaa !4
  %14 = getelementptr inbounds nuw %struct.AVCodecContext, ptr %13, i32 0, i32 12
  %15 = load ptr, ptr %14, align 8, !tbaa !31
  store ptr %15, ptr %5, align 8, !tbaa !32
  call void @llvm.lifetime.start.p0(i64 4, ptr %6) #10
  %16 = load ptr, ptr %3, align 8, !tbaa !4
  %17 = getelementptr inbounds nuw %struct.AVCodecContext, ptr %16, i32 0, i32 13
  %18 = load i32, ptr %17, align 8, !tbaa !33
  %19 = icmp ne i32 %18, 0
  br i1 %19, label %20, label %50

20:                                               ; preds = %1
  %21 = load ptr, ptr %3, align 8, !tbaa !4
  %22 = getelementptr inbounds nuw %struct.AVCodecContext, ptr %21, i32 0, i32 13
  %23 = load i32, ptr %22, align 8, !tbaa !33
  %24 = icmp ne i32 %23, 12
  br i1 %24, label %25, label %50

25:                                               ; preds = %20
  %26 = load ptr, ptr %3, align 8, !tbaa !4
  %27 = getelementptr inbounds nuw %struct.AVCodecContext, ptr %26, i32 0, i32 13
  %28 = load i32, ptr %27, align 8, !tbaa !33
  %29 = icmp ne i32 %28, 128
  br i1 %29, label %30, label %50

30:                                               ; preds = %25
  %31 = load ptr, ptr %3, align 8, !tbaa !4
  %32 = getelementptr inbounds nuw %struct.AVCodecContext, ptr %31, i32 0, i32 13
  %33 = load i32, ptr %32, align 8, !tbaa !33
  %34 = icmp ne i32 %33, 256
  br i1 %34, label %35, label %50

35:                                               ; preds = %30
  %36 = load ptr, ptr %3, align 8, !tbaa !4
  %37 = getelementptr inbounds nuw %struct.AVCodecContext, ptr %36, i32 0, i32 13
  %38 = load i32, ptr %37, align 8, !tbaa !33
  %39 = icmp ne i32 %38, 904
  br i1 %39, label %40, label %50

40:                                               ; preds = %35
  %41 = load ptr, ptr %3, align 8, !tbaa !4
  %42 = getelementptr inbounds nuw %struct.AVCodecContext, ptr %41, i32 0, i32 13
  %43 = load i32, ptr %42, align 8, !tbaa !33
  %44 = icmp ne i32 %43, 1024
  br i1 %44, label %45, label %50

45:                                               ; preds = %40
  %46 = load ptr, ptr %3, align 8, !tbaa !4
  %47 = load ptr, ptr %3, align 8, !tbaa !4
  %48 = getelementptr inbounds nuw %struct.AVCodecContext, ptr %47, i32 0, i32 13
  %49 = load i32, ptr %48, align 8, !tbaa !33
  call void (ptr, i32, ptr, ...) @av_log(ptr noundef %46, i32 noundef 16, ptr noundef @.str.2, i32 noundef %49)
  store i32 -1094995529, ptr %2, align 4
  store i32 1, ptr %7, align 4
  br label %165

50:                                               ; preds = %40, %35, %30, %25, %20, %1
  %51 = load ptr, ptr %3, align 8, !tbaa !4
  %52 = load ptr, ptr %4, align 8, !tbaa !29
  %53 = getelementptr inbounds nuw %struct.FlicDecodeContext, ptr %52, i32 0, i32 0
  store ptr %51, ptr %53, align 8, !tbaa !34
  %54 = load ptr, ptr %4, align 8, !tbaa !29
  %55 = getelementptr inbounds nuw %struct.FlicDecodeContext, ptr %54, i32 0, i32 0
  %56 = load ptr, ptr %55, align 8, !tbaa !34
  %57 = getelementptr inbounds nuw %struct.AVCodecContext, ptr %56, i32 0, i32 13
  %58 = load i32, ptr %57, align 8, !tbaa !33
  %59 = icmp eq i32 %58, 12
  br i1 %59, label %60, label %63

60:                                               ; preds = %50
  %61 = load ptr, ptr %4, align 8, !tbaa !29
  %62 = getelementptr inbounds nuw %struct.FlicDecodeContext, ptr %61, i32 0, i32 4
  store i32 44819, ptr %62, align 4, !tbaa !37
  store i32 8, ptr %6, align 4, !tbaa !38
  br label %120

63:                                               ; preds = %50
  %64 = load ptr, ptr %3, align 8, !tbaa !4
  %65 = getelementptr inbounds nuw %struct.AVCodecContext, ptr %64, i32 0, i32 13
  %66 = load i32, ptr %65, align 8, !tbaa !33
  %67 = icmp eq i32 %66, 1024
  br i1 %67, label %68, label %89

68:                                               ; preds = %63
  call void @llvm.lifetime.start.p0(i64 8, ptr %8) #10
  %69 = load ptr, ptr %3, align 8, !tbaa !4
  %70 = getelementptr inbounds nuw %struct.AVCodecContext, ptr %69, i32 0, i32 12
  %71 = load ptr, ptr %70, align 8, !tbaa !31
  store ptr %71, ptr %8, align 8, !tbaa !32
  call void @llvm.lifetime.start.p0(i64 4, ptr %9) #10
  store i32 0, ptr %9, align 4, !tbaa !38
  br label %72

72:                                               ; preds = %85, %68
  %73 = load i32, ptr %9, align 4, !tbaa !38
  %74 = icmp slt i32 %73, 256
  br i1 %74, label %75, label %88

75:                                               ; preds = %72
  %76 = load ptr, ptr %8, align 8, !tbaa !32
  %77 = load i32, ptr %76, align 1, !tbaa !39
  %78 = load ptr, ptr %4, align 8, !tbaa !29
  %79 = getelementptr inbounds nuw %struct.FlicDecodeContext, ptr %78, i32 0, i32 2
  %80 = load i32, ptr %9, align 4, !tbaa !38
  %81 = sext i32 %80 to i64
  %82 = getelementptr inbounds [256 x i32], ptr %79, i64 0, i64 %81
  store i32 %77, ptr %82, align 4, !tbaa !38
  %83 = load ptr, ptr %8, align 8, !tbaa !32
  %84 = getelementptr inbounds i8, ptr %83, i64 4
  store ptr %84, ptr %8, align 8, !tbaa !32
  br label %85

85:                                               ; preds = %75
  %86 = load i32, ptr %9, align 4, !tbaa !38
  %87 = add nsw i32 %86, 1
  store i32 %87, ptr %9, align 4, !tbaa !38
  br label %72, !llvm.loop !40

88:                                               ; preds = %72
  store i32 8, ptr %6, align 4, !tbaa !38
  call void @llvm.lifetime.end.p0(i64 4, ptr %9) #10
  call void @llvm.lifetime.end.p0(i64 8, ptr %8) #10
  br label %119

89:                                               ; preds = %63
  %90 = load ptr, ptr %3, align 8, !tbaa !4
  %91 = getelementptr inbounds nuw %struct.AVCodecContext, ptr %90, i32 0, i32 13
  %92 = load i32, ptr %91, align 8, !tbaa !33
  %93 = icmp eq i32 %92, 0
  br i1 %93, label %104, label %94

94:                                               ; preds = %89
  %95 = load ptr, ptr %3, align 8, !tbaa !4
  %96 = getelementptr inbounds nuw %struct.AVCodecContext, ptr %95, i32 0, i32 13
  %97 = load i32, ptr %96, align 8, !tbaa !33
  %98 = icmp eq i32 %97, 256
  br i1 %98, label %104, label %99

99:                                               ; preds = %94
  %100 = load ptr, ptr %3, align 8, !tbaa !4
  %101 = getelementptr inbounds nuw %struct.AVCodecContext, ptr %100, i32 0, i32 13
  %102 = load i32, ptr %101, align 8, !tbaa !33
  %103 = icmp eq i32 %102, 904
  br i1 %103, label %104, label %107

104:                                              ; preds = %99, %94, %89
  %105 = load ptr, ptr %4, align 8, !tbaa !29
  %106 = getelementptr inbounds nuw %struct.FlicDecodeContext, ptr %105, i32 0, i32 4
  store i32 44817, ptr %106, align 4, !tbaa !37
  store i32 8, ptr %6, align 4, !tbaa !38
  br label %118

107:                                              ; preds = %99
  %108 = load ptr, ptr %5, align 8, !tbaa !32
  %109 = getelementptr inbounds i8, ptr %108, i64 4
  %110 = load i16, ptr %109, align 1, !tbaa !39
  %111 = zext i16 %110 to i32
  %112 = load ptr, ptr %4, align 8, !tbaa !29
  %113 = getelementptr inbounds nuw %struct.FlicDecodeContext, ptr %112, i32 0, i32 4
  store i32 %111, ptr %113, align 4, !tbaa !37
  %114 = load ptr, ptr %5, align 8, !tbaa !32
  %115 = getelementptr inbounds i8, ptr %114, i64 12
  %116 = load i16, ptr %115, align 1, !tbaa !39
  %117 = zext i16 %116 to i32
  store i32 %117, ptr %6, align 4, !tbaa !38
  br label %118

118:                                              ; preds = %107, %104
  br label %119

119:                                              ; preds = %118, %88
  br label %120

120:                                              ; preds = %119, %60
  %121 = load i32, ptr %6, align 4, !tbaa !38
  %122 = icmp eq i32 %121, 0
  br i1 %122, label %123, label %124

123:                                              ; preds = %120
  store i32 8, ptr %6, align 4, !tbaa !38
  br label %124

124:                                              ; preds = %123, %120
  %125 = load ptr, ptr %4, align 8, !tbaa !29
  %126 = getelementptr inbounds nuw %struct.FlicDecodeContext, ptr %125, i32 0, i32 4
  %127 = load i32, ptr %126, align 4, !tbaa !37
  %128 = icmp eq i32 %127, 44818
  br i1 %128, label %129, label %133

129:                                              ; preds = %124
  %130 = load i32, ptr %6, align 4, !tbaa !38
  %131 = icmp eq i32 %130, 16
  br i1 %131, label %132, label %133

132:                                              ; preds = %129
  store i32 15, ptr %6, align 4, !tbaa !38
  br label %133

133:                                              ; preds = %132, %129, %124
  %134 = load i32, ptr %6, align 4, !tbaa !38
  switch i32 %134, label %150 [
    i32 1, label %135
    i32 8, label %138
    i32 15, label %141
    i32 16, label %144
    i32 24, label %147
  ]

135:                                              ; preds = %133
  %136 = load ptr, ptr %3, align 8, !tbaa !4
  %137 = getelementptr inbounds nuw %struct.AVCodecContext, ptr %136, i32 0, i32 23
  store i32 10, ptr %137, align 8, !tbaa !42
  br label %153

138:                                              ; preds = %133
  %139 = load ptr, ptr %3, align 8, !tbaa !4
  %140 = getelementptr inbounds nuw %struct.AVCodecContext, ptr %139, i32 0, i32 23
  store i32 11, ptr %140, align 8, !tbaa !42
  br label %153

141:                                              ; preds = %133
  %142 = load ptr, ptr %3, align 8, !tbaa !4
  %143 = getelementptr inbounds nuw %struct.AVCodecContext, ptr %142, i32 0, i32 23
  store i32 39, ptr %143, align 8, !tbaa !42
  br label %153

144:                                              ; preds = %133
  %145 = load ptr, ptr %3, align 8, !tbaa !4
  %146 = getelementptr inbounds nuw %struct.AVCodecContext, ptr %145, i32 0, i32 23
  store i32 37, ptr %146, align 8, !tbaa !42
  br label %153

147:                                              ; preds = %133
  %148 = load ptr, ptr %3, align 8, !tbaa !4
  %149 = getelementptr inbounds nuw %struct.AVCodecContext, ptr %148, i32 0, i32 23
  store i32 3, ptr %149, align 8, !tbaa !42
  br label %153

150:                                              ; preds = %133
  %151 = load ptr, ptr %3, align 8, !tbaa !4
  %152 = load i32, ptr %6, align 4, !tbaa !38
  call void (ptr, i32, ptr, ...) @av_log(ptr noundef %151, i32 noundef 16, ptr noundef @.str.3, i32 noundef %152)
  store i32 -1094995529, ptr %2, align 4
  store i32 1, ptr %7, align 4
  br label %165

153:                                              ; preds = %147, %144, %141, %138, %135
  %154 = call ptr @av_frame_alloc()
  %155 = load ptr, ptr %4, align 8, !tbaa !29
  %156 = getelementptr inbounds nuw %struct.FlicDecodeContext, ptr %155, i32 0, i32 1
  store ptr %154, ptr %156, align 8, !tbaa !43
  %157 = load ptr, ptr %4, align 8, !tbaa !29
  %158 = getelementptr inbounds nuw %struct.FlicDecodeContext, ptr %157, i32 0, i32 1
  %159 = load ptr, ptr %158, align 8, !tbaa !43
  %160 = icmp ne ptr %159, null
  br i1 %160, label %162, label %161

161:                                              ; preds = %153
  store i32 -12, ptr %2, align 4
  store i32 1, ptr %7, align 4
  br label %165

162:                                              ; preds = %153
  %163 = load ptr, ptr %4, align 8, !tbaa !29
  %164 = getelementptr inbounds nuw %struct.FlicDecodeContext, ptr %163, i32 0, i32 3
  store i32 0, ptr %164, align 8, !tbaa !44
  store i32 0, ptr %2, align 4
  store i32 1, ptr %7, align 4
  br label %165

165:                                              ; preds = %162, %161, %150, %45
  call void @llvm.lifetime.end.p0(i64 4, ptr %6) #10
  call void @llvm.lifetime.end.p0(i64 8, ptr %5) #10
  call void @llvm.lifetime.end.p0(i64 8, ptr %4) #10
  %166 = load i32, ptr %2, align 4
  ret i32 %166
}