; Function Attrs: cold nounwind optsize uwtable
define internal range(i32 -1094995529, 1) i32 @flic_decode_init(ptr noundef %0) #0 {
  %2 = getelementptr inbounds nuw i8, ptr %0, i64 32
  %3 = load ptr, ptr %2, align 8, !tbaa !4
  %4 = getelementptr inbounds nuw i8, ptr %0, i64 72
  %5 = load ptr, ptr %4, align 8, !tbaa !27
  %6 = getelementptr inbounds nuw i8, ptr %0, i64 80
  %7 = load i32, ptr %6, align 8, !tbaa !28
  switch i32 %7, label %8 [
    i32 0, label %9
    i32 12, label %9
    i32 128, label %9
    i32 256, label %9
    i32 904, label %9
    i32 1024, label %9
  ]

8:                                                ; preds = %1
  tail call void (ptr, i32, ptr, ...) @av_log(ptr noundef nonnull %0, i32 noundef 16, ptr noundef nonnull @.str.2, i32 noundef %7) #7
  br label %42

9:                                                ; preds = %1, %1, %1, %1, %1, %1
  store ptr %0, ptr %3, align 8, !tbaa !29
  switch i32 %7, label %19 [
    i32 12, label %11
    i32 1024, label %.preheader
    i32 0, label %17
    i32 256, label %17
    i32 904, label %17
  ]

.preheader:                                       ; preds = %9
  %10 = getelementptr inbounds nuw i8, ptr %3, i64 16
  br label %13

11:                                               ; preds = %9
  %12 = getelementptr inbounds nuw i8, ptr %3, i64 1044
  store i32 44819, ptr %12, align 4, !tbaa !33
  br label %.thread

13:                                               ; preds = %.preheader, %13
  %indvars.iv = phi i64 [ 0, %.preheader ], [ %indvars.iv.next, %13 ]
  %.04558 = phi ptr [ %5, %.preheader ], [ %16, %13 ]
  %14 = load i32, ptr %.04558, align 1, !tbaa !34
  %15 = getelementptr inbounds nuw [256 x i32], ptr %10, i64 0, i64 %indvars.iv
  store i32 %14, ptr %15, align 4, !tbaa !35
  %16 = getelementptr inbounds nuw i8, ptr %.04558, i64 4
  %indvars.iv.next = add nuw nsw i64 %indvars.iv, 1
  %exitcond.not = icmp eq i64 %indvars.iv.next, 256
  br i1 %exitcond.not, label %.thread.loopexit, label %13, !llvm.loop !36

17:                                               ; preds = %9, %9, %9
  %18 = getelementptr inbounds nuw i8, ptr %3, i64 1044
  store i32 44817, ptr %18, align 4, !tbaa !33
  br label %.thread

19:                                               ; preds = %9
  %20 = getelementptr inbounds nuw i8, ptr %5, i64 4
  %21 = load i16, ptr %20, align 1, !tbaa !34
  %22 = zext i16 %21 to i32
  %23 = getelementptr inbounds nuw i8, ptr %3, i64 1044
  store i32 %22, ptr %23, align 4, !tbaa !33
  %24 = getelementptr inbounds nuw i8, ptr %5, i64 12
  %25 = load i16, ptr %24, align 1, !tbaa !34
  %.fr = freeze i16 %25
  %26 = icmp eq i16 %.fr, 0
  %narrow = select i1 %26, i16 8, i16 %.fr
  %spec.select = zext i16 %narrow to i32
  br label %.thread

.thread.loopexit:                                 ; preds = %13
  %.phi.trans.insert = getelementptr inbounds nuw i8, ptr %3, i64 1044
  %.pre = load i32, ptr %.phi.trans.insert, align 4, !tbaa !33
  br label %.thread

.thread:                                          ; preds = %.thread.loopexit, %19, %17, %11
  %27 = phi i32 [ 44819, %11 ], [ 44817, %17 ], [ %22, %19 ], [ %.pre, %.thread.loopexit ]
  %28 = phi i32 [ 8, %11 ], [ 8, %17 ], [ %spec.select, %19 ], [ 8, %.thread.loopexit ]
  %29 = icmp eq i32 %27, 44818
  %30 = icmp eq i32 %28, 16
  %or.cond = and i1 %30, %29
  %spec.store.select2 = select i1 %or.cond, i32 15, i32 %28
  %trunc = trunc nuw i32 %spec.store.select2 to i16
  switch i16 %trunc, label %35 [
    i16 1, label %36
    i16 8, label %31
    i16 15, label %32
    i16 16, label %33
    i16 24, label %34
  ]

31:                                               ; preds = %.thread
  br label %36

32:                                               ; preds = %.thread
  br label %36

33:                                               ; preds = %.thread
  br label %36

34:                                               ; preds = %.thread
  br label %36

35:                                               ; preds = %.thread
  tail call void (ptr, i32, ptr, ...) @av_log(ptr noundef nonnull %0, i32 noundef 16, ptr noundef nonnull @.str.3, i32 noundef %spec.store.select2) #7
  br label %42

36:                                               ; preds = %.thread, %34, %33, %32, %31
  %.sink = phi i32 [ 3, %34 ], [ 37, %33 ], [ 39, %32 ], [ 11, %31 ], [ 10, %.thread ]
  %37 = getelementptr inbounds nuw i8, ptr %0, i64 136
  store i32 %.sink, ptr %37, align 8, !tbaa !38
  %38 = tail call ptr @av_frame_alloc() #7
  %39 = getelementptr inbounds nuw i8, ptr %3, i64 8
  store ptr %38, ptr %39, align 8, !tbaa !39
  %.not55 = icmp eq ptr %38, null
  br i1 %.not55, label %42, label %40

40:                                               ; preds = %36
  %41 = getelementptr inbounds nuw i8, ptr %3, i64 1040
  store i32 0, ptr %41, align 8, !tbaa !40
  br label %42

42:                                               ; preds = %36, %40, %35, %8
  %.047 = phi i32 [ -1094995529, %8 ], [ -1094995529, %35 ], [ 0, %40 ], [ -12, %36 ]
  ret i32 %.047
}